target datalayout = "e-m:e-p270:32:32-p271:32:32-p272:64:64-i64:64-i128:128-f80:128-n8:16:32:64-S128"
target triple = "x86_64-pc-linux-gnu"

%"class.llvm::MemoryBufferRef" = type { %"class.llvm::StringRef", %"class.llvm::StringRef" }
%"class.llvm::StringRef" = type { ptr, i64 }
%"class.llvm::object::TapiFile" = type { %"class.llvm::object::SymbolicFile", %"class.std::vector", i8, i32 }
%"class.llvm::object::SymbolicFile" = type { %"class.llvm::object::Binary" }
%"class.llvm::object::Binary" = type { ptr, i32, %"class.llvm::MemoryBufferRef" }
%"class.std::vector" = type { %"struct.std::_Vector_base" }
%"struct.std::_Vector_base" = type { %"struct.std::_Vector_base<llvm::object::TapiFile::Symbol, std::allocator<llvm::object::TapiFile::Symbol>>::_Vector_impl" }
%"struct.std::_Vector_base<llvm::object::TapiFile::Symbol, std::allocator<llvm::object::TapiFile::Symbol>>::_Vector_impl" = type { %"struct.std::_Vector_base<llvm::object::TapiFile::Symbol, std::allocator<llvm::object::TapiFile::Symbol>>::_Vector_impl_data" }
%"struct.std::_Vector_base<llvm::object::TapiFile::Symbol, std::allocator<llvm::object::TapiFile::Symbol>>::_Vector_impl_data" = type { ptr, ptr, ptr }
%"struct.llvm::object::TapiFile::Symbol" = type { %"class.llvm::StringRef", %"class.llvm::StringRef", i32, i32 }
%struct.anon = type { i32, i32 }
%"union.llvm::object::DataRefImpl" = type { i64 }
%"struct.llvm::AlignedCharArrayUnion.40" = type { [8 x i8] }
%"class.llvm::Expected.41" = type { %union.anon.42, i8, [7 x i8] }
%union.anon.42 = type { %"struct.llvm::AlignedCharArrayUnion.40" }

; Function Attrs: mustprogress nounwind uwtable
define linkonce_odr hidden noundef ptr @_ZN4llvm8ExpectedIjE10getStorageEv(ptr noundef nonnull align 8 dereferenceable(9) %0) #0 comdat align 2 {
  %2 = alloca ptr, align 8
  store ptr %0, ptr %2, align 8
  %3 = load ptr, ptr %2, align 8
  %4 = getelementptr inbounds nuw %"class.llvm::Expected.41", ptr %3, i32 0, i32 0
  ret ptr %4
}

; Function Attrs: mustprogress nounwind uwtable
define linkonce_odr hidden void @_ZN4llvm8ExpectedIjEC2IRKjEEOT_PNSt9enable_ifIXsr3stdE16is_convertible_vIS5_jEEvE4typeE(ptr noundef nonnull align 8 dereferenceable(9) %0, ptr noundef nonnull align 4 dereferenceable(4) %1, ptr noundef %2) unnamed_addr #0 comdat align 2 {
  %4 = alloca ptr, align 8
  %5 = alloca ptr, align 8
  %6 = alloca ptr, align 8
  store ptr %0, ptr %4, align 8
  store ptr %1, ptr %5, align 8
  store ptr %2, ptr %6, align 8
  %7 = load ptr, ptr %4, align 8
  %8 = getelementptr inbounds nuw %"class.llvm::Expected.41", ptr %7, i32 0, i32 1
  %9 = load i8, ptr %8, align 8
  %10 = and i8 %9, -2
  %11 = or i8 %10, 0
  store i8 %11, ptr %8, align 8
  %12 = call noundef ptr @_ZN4llvm8ExpectedIjE10getStorageEv(ptr noundef nonnull align 8 dereferenceable(9) %7)
  %13 = load ptr, ptr %5, align 8
  %14 = load i32, ptr %13, align 4
  store i32 %14, ptr %12, align 4
  ret void
}

; Function Attrs: mustprogress nounwind uwtable
define linkonce_odr hidden noundef nonnull align 8 dereferenceable(40) ptr @_ZNKSt6vectorIN4llvm6object8TapiFile6SymbolESaIS3_EEixEm(ptr noundef nonnull align 8 dereferenceable(24) %0, i64 noundef %1) #0 comdat align 2 {
  %3 = alloca ptr, align 8
  %4 = alloca i64, align 8
  store ptr %0, ptr %3, align 8
  store i64 %1, ptr %4, align 8
  %5 = load ptr, ptr %3, align 8
  %6 = getelementptr inbounds nuw %"struct.std::_Vector_base", ptr %5, i32 0, i32 0
  %7 = getelementptr inbounds nuw %"struct.std::_Vector_base<llvm::object::TapiFile::Symbol, std::allocator<llvm::object::TapiFile::Symbol>>::_Vector_impl_data", ptr %6, i32 0, i32 0
  %8 = load ptr, ptr %7, align 8
  %9 = load i64, ptr %4, align 8
  %10 = getelementptr inbounds %"struct.llvm::object::TapiFile::Symbol", ptr %8, i64 %9
  ret ptr %10
}

; Function Attrs: mustprogress nounwind uwtable
define dso_local void @_ZNK4llvm6object8TapiFile14getSymbolFlagsENS0_11DataRefImplE(ptr dead_on_unwind noalias writable sret(%"class.llvm::Expected.41") align 8 %0, ptr noundef nonnull align 8 dereferenceable(80) %1, i64 %2) unnamed_addr #0 align 2 {
  %4 = alloca ptr, align 8
  %5 = alloca %"union.llvm::object::DataRefImpl", align 8
  %6 = alloca ptr, align 8
  store ptr %0, ptr %4, align 8
  %7 = getelementptr inbounds nuw %"union.llvm::object::DataRefImpl", ptr %5, i32 0, i32 0
  store i64 %2, ptr %7, align 8
  store ptr %1, ptr %6, align 8
  %8 = load ptr, ptr %6, align 8
  %9 = getelementptr inbounds nuw %"class.llvm::object::TapiFile", ptr %8, i32 0, i32 1
  %10 = getelementptr inbounds nuw %struct.anon, ptr %5, i32 0, i32 0
  %11 = load i32, ptr %10, align 8
  %12 = zext i32 %11 to i64
  %13 = call noundef nonnull align 8 dereferenceable(40) ptr @_ZNKSt6vectorIN4llvm6object8TapiFile6SymbolESaIS3_EEixEm(ptr noundef nonnull align 8 dereferenceable(24) %9, i64 noundef %12) #9
  %14 = getelementptr inbounds nuw %"struct.llvm::object::TapiFile::Symbol", ptr %13, i32 0, i32 2
  call void @_ZN4llvm8ExpectedIjEC2IRKjEEOT_PNSt9enable_ifIXsr3stdE16is_convertible_vIS5_jEEvE4typeE(ptr noundef nonnull align 8 dereferenceable(9) %0, ptr noundef nonnull align 4 dereferenceable(4) %14, ptr noundef null)
  ret void
}