; Function Attrs: mustprogress nofree norecurse nosync nounwind willreturn memory(read, argmem: readwrite, inaccessiblemem: none) uwtable
define dso_local void @_ZNK4llvm6object8TapiFile14getSymbolFlagsENS0_11DataRefImplE(ptr dead_on_unwind noalias nocapture writable sret(%"class.llvm::Expected.41") align 8 %0, ptr nocapture noundef nonnull readonly align 8 dereferenceable(80) %1, i64 %2) unnamed_addr #7 align 2 {
  %4 = getelementptr inbounds nuw i8, ptr %1, i64 48
  %5 = and i64 %2, 4294967295
  %6 = load ptr, ptr %4, align 8
  %7 = getelementptr inbounds %"struct.llvm::object::TapiFile::Symbol", ptr %6, i64 %5, i32 2
  %8 = getelementptr inbounds nuw i8, ptr %0, i64 8
  %9 = load i8, ptr %8, align 8
  %10 = and i8 %9, -2
  store i8 %10, ptr %8, align 8
  %11 = load i32, ptr %7, align 4
  store i32 %11, ptr %0, align 8
  ret void
}